; Function Attrs: nounwind uwtable
define hidden void @fractionalScaleHandlePreferredScale(ptr noundef initializes((1064, 1068)) %0, ptr readnone captures(none) %1, i32 noundef %2) #0 {
  %4 = getelementptr inbounds nuw i8, ptr %0, i64 1064
  store i32 %2, ptr %4, align 8, !tbaa !139
  %5 = uitofp i32 %2 to float
  %6 = fdiv float %5, 1.200000e+02
  tail call void @_glfwInputWindowContentScale(ptr noundef %0, float noundef %6, float noundef %6) #20
  tail call fastcc void @resizeFramebuffer(ptr noundef %0)
  %7 = getelementptr inbounds nuw i8, ptr %0, i64 872
  %8 = load i32, ptr %7, align 8, !tbaa !137
  %.not = icmp eq i32 %8, 0
  br i1 %.not, label %10, label %9

9:                                                ; preds = %3
  tail call void @_glfwInputWindowDamage(ptr noundef nonnull %0) #20
  br label %10

10:                                               ; preds = %9, %3
  ret void
}